     1 00000000                                 [FORMAT "WCOFF"]
     2 00000000                                 [INSTRSET "i486p"]
     3 00000000                                 [OPTIMIZE 1]
     4 00000000                                 [OPTION 1]
     5 00000000                                 [BITS 32]
     6 00000000                                 	EXTERN	_memman_alloc_4k
     7 00000000                                 [FILE "sheet.c"]
     8                                          [SECTION .text]
     9 00000000                                 	GLOBAL	_shtctl_init
    10 00000000                                 _shtctl_init:
    11 00000000 55                              	PUSH	EBP
    12 00000001 89 E5                           	MOV	EBP,ESP
    13 00000003 68 00002810                     	PUSH	10256
    14 00000008 FF 75 08                        	PUSH	DWORD [8+EBP]
    15 0000000B E8 [00000000]                   	CALL	_memman_alloc_4k
    16 00000010 89 C2                           	MOV	EDX,EAX
    17 00000012 58                              	POP	EAX
    18 00000013 59                              	POP	ECX
    19 00000014 85 D2                           	TEST	EDX,EDX
    20 00000016 74 37                           	JE	L3
    21 00000018 8B 45 0C                        	MOV	EAX,DWORD [12+EBP]
    22 0000001B 8D 8A 000023DC                  	LEA	ECX,DWORD [9180+EDX]
    23 00000021 89 02                           	MOV	DWORD [EDX],EAX
    24 00000023 8B 45 10                        	MOV	EAX,DWORD [16+EBP]
    25 00000026 89 42 04                        	MOV	DWORD [4+EDX],EAX
    26 00000029 8B 45 14                        	MOV	EAX,DWORD [20+EBP]
    27 0000002C 89 42 08                        	MOV	DWORD [8+EDX],EAX
    28 0000002F 89 D0                           	MOV	EAX,EDX
    29 00000031 C7 42 0C FFFFFFFF               	MOV	DWORD [12+EDX],-1
    30 00000038                                 L8:
    31 00000038 C7 80 0000042C 00000000         	MOV	DWORD [1068+EAX],0
    32 00000042 89 90 00000430                  	MOV	DWORD [1072+EAX],EDX
    33 00000048 83 C0 24                        	ADD	EAX,36
    34 0000004B 39 C8                           	CMP	EAX,ECX
    35 0000004D 7E E9                           	JLE	L8
    36 0000004F                                 L3:
    37 0000004F 89 D0                           	MOV	EAX,EDX
    38 00000051 C9                              	LEAVE
    39 00000052 C3                              	RET
    40 00000053                                 	GLOBAL	_sheet_alloc
    41 00000053                                 _sheet_alloc:
    42 00000053 55                              	PUSH	EBP
    43 00000054 31 D2                           	XOR	EDX,EDX
    44 00000056 89 E5                           	MOV	EBP,ESP
    45 00000058 8B 45 08                        	MOV	EAX,DWORD [8+EBP]
    46 0000005B 05 00000410                     	ADD	EAX,1040
    47 00000060                                 L16:
    48 00000060 83 78 1C 00                     	CMP	DWORD [28+EAX],0
    49 00000064 74 10                           	JE	L19
    50 00000066 42                              	INC	EDX
    51 00000067 83 C0 24                        	ADD	EAX,36
    52 0000006A 81 FA 000000FF                  	CMP	EDX,255
    53 00000070 7E EE                           	JLE	L16
    54 00000072 31 C0                           	XOR	EAX,EAX
    55 00000074                                 L10:
    56 00000074 5D                              	POP	EBP
    57 00000075 C3                              	RET
    58 00000076                                 L19:
    59 00000076 C7 40 1C 00000001               	MOV	DWORD [28+EAX],1
    60 0000007D C7 40 18 FFFFFFFF               	MOV	DWORD [24+EAX],-1
    61 00000084 EB EE                           	JMP	L10
    62 00000086                                 	GLOBAL	_sheet_setbuf
    63 00000086                                 _sheet_setbuf:
    64 00000086 55                              	PUSH	EBP
    65 00000087 89 E5                           	MOV	EBP,ESP
    66 00000089 8B 55 08                        	MOV	EDX,DWORD [8+EBP]
    67 0000008C 8B 45 0C                        	MOV	EAX,DWORD [12+EBP]
    68 0000008F 89 02                           	MOV	DWORD [EDX],EAX
    69 00000091 8B 45 10                        	MOV	EAX,DWORD [16+EBP]
    70 00000094 89 42 04                        	MOV	DWORD [4+EDX],EAX
    71 00000097 8B 45 14                        	MOV	EAX,DWORD [20+EBP]
    72 0000009A 89 42 08                        	MOV	DWORD [8+EDX],EAX
    73 0000009D 8B 45 18                        	MOV	EAX,DWORD [24+EBP]
    74 000000A0 89 42 14                        	MOV	DWORD [20+EDX],EAX
    75 000000A3 5D                              	POP	EBP
    76 000000A4 C3                              	RET
    77 000000A5                                 	GLOBAL	_sheet_updown
    78 000000A5                                 _sheet_updown:
    79 000000A5 55                              	PUSH	EBP
    80 000000A6 89 E5                           	MOV	EBP,ESP
    81 000000A8 57                              	PUSH	EDI
    82 000000A9 56                              	PUSH	ESI
    83 000000AA 8B 7D 08                        	MOV	EDI,DWORD [8+EBP]
    84 000000AD 53                              	PUSH	EBX
    85 000000AE 8B 5D 0C                        	MOV	EBX,DWORD [12+EBP]
    86 000000B1 8B 77 20                        	MOV	ESI,DWORD [32+EDI]
    87 000000B4 8B 47 18                        	MOV	EAX,DWORD [24+EDI]
    88 000000B7 8B 56 0C                        	MOV	EDX,DWORD [12+ESI]
    89 000000BA 42                              	INC	EDX
    90 000000BB 39 D3                           	CMP	EBX,EDX
    91 000000BD 7E 02                           	JLE	L22
    92 000000BF 89 D3                           	MOV	EBX,EDX
    93 000000C1                                 L22:
    94 000000C1 83 FB FF                        	CMP	EBX,-1
    95 000000C4 7D 03                           	JGE	L23
    96 000000C6 83 CB FF                        	OR	EBX,-1
    97 000000C9                                 L23:
    98 000000C9 89 5F 18                        	MOV	DWORD [24+EDI],EBX
    99 000000CC 39 D8                           	CMP	EAX,EBX
   100 000000CE 7E 62                           	JLE	L24
   101 000000D0 85 DB                           	TEST	EBX,EBX
   102 000000D2 78 3B                           	JS	L25
   103 000000D4 89 C1                           	MOV	ECX,EAX
   104 000000D6                                 L30:
   105 000000D6 8B 44 8E 0C                     	MOV	EAX,DWORD [12+ESI+ECX*4]
   106 000000DA 89 44 8E 10                     	MOV	DWORD [16+ESI+ECX*4],EAX
   107 000000DE 89 48 18                        	MOV	DWORD [24+EAX],ECX
   108 000000E1 49                              	DEC	ECX
   109 000000E2 39 D9                           	CMP	ECX,EBX
   110 000000E4 7F F0                           	JG	L30
   111 000000E6                                 L56:
   112 000000E6 89 7C 9E 10                     	MOV	DWORD [16+ESI+EBX*4],EDI
   113 000000EA                                 L46:
   114 000000EA 8B 4F 10                        	MOV	ECX,DWORD [16+EDI]
   115 000000ED 89 C8                           	MOV	EAX,ECX
   116 000000EF 03 47 08                        	ADD	EAX,DWORD [8+EDI]
   117 000000F2 50                              	PUSH	EAX
   118 000000F3 8B 57 0C                        	MOV	EDX,DWORD [12+EDI]
   119 000000F6 89 D0                           	MOV	EAX,EDX
   120 000000F8 03 47 04                        	ADD	EAX,DWORD [4+EDI]
   121 000000FB 50                              	PUSH	EAX
   122 000000FC 51                              	PUSH	ECX
   123 000000FD 52                              	PUSH	EDX
   124 000000FE 56                              	PUSH	ESI
   125 000000FF E8 000000BA                     	CALL	_sheet_refreshsub
   126 00000104 83 C4 14                        	ADD	ESP,20
   127 00000107                                 L21:
   128 00000107 8D 65 F4                        	LEA	ESP,DWORD [-12+EBP]
   129 0000010A 5B                              	POP	EBX
   130 0000010B 5E                              	POP	ESI
   131 0000010C 5F                              	POP	EDI
   132 0000010D 5D                              	POP	EBP
   133 0000010E C3                              	RET
   134 0000010F                                 L25:
   135 0000010F 8B 56 0C                        	MOV	EDX,DWORD [12+ESI]
   136 00000112 39 C2                           	CMP	EDX,EAX
   137 00000114 7E 17                           	JLE	L32
   138 00000116 89 C1                           	MOV	ECX,EAX
   139 00000118 39 D0                           	CMP	EAX,EDX
   140 0000011A 7D 11                           	JGE	L32
   141 0000011C                                 L37:
   142 0000011C 8B 44 8E 14                     	MOV	EAX,DWORD [20+ESI+ECX*4]
   143 00000120 89 44 8E 10                     	MOV	DWORD [16+ESI+ECX*4],EAX
   144 00000124 89 48 18                        	MOV	DWORD [24+EAX],ECX
   145 00000127 41                              	INC	ECX
   146 00000128 3B 4E 0C                        	CMP	ECX,DWORD [12+ESI]
   147 0000012B 7C EF                           	JL	L37
   148 0000012D                                 L32:
   149 0000012D FF 4E 0C                        	DEC	DWORD [12+ESI]
   150 00000130 EB B8                           	JMP	L46
   151 00000132                                 L24:
   152 00000132 39 D8                           	CMP	EAX,EBX
   153 00000134 7D D1                           	JGE	L21
   154 00000136 85 C0                           	TEST	EAX,EAX
   155 00000138 78 18                           	JS	L40
   156 0000013A 89 C1                           	MOV	ECX,EAX
   157 0000013C 39 D8                           	CMP	EAX,EBX
   158 0000013E 7D A6                           	JGE	L56
   159 00000140                                 L45:
   160 00000140 8B 44 8E 14                     	MOV	EAX,DWORD [20+ESI+ECX*4]
   161 00000144 89 44 8E 10                     	MOV	DWORD [16+ESI+ECX*4],EAX
   162 00000148 89 48 18                        	MOV	DWORD [24+EAX],ECX
   163 0000014B 41                              	INC	ECX
   164 0000014C 39 D9                           	CMP	ECX,EBX
   165 0000014E 7C F0                           	JL	L45
   166 00000150 EB 94                           	JMP	L56
   167 00000152                                 L40:
   168 00000152 8B 4E 0C                        	MOV	ECX,DWORD [12+ESI]
   169 00000155 39 D9                           	CMP	ECX,EBX
   170 00000157 7C 13                           	JL	L58
   171 00000159                                 L51:
   172 00000159 8B 54 8E 10                     	MOV	EDX,DWORD [16+ESI+ECX*4]
   173 0000015D 8D 41 01                        	LEA	EAX,DWORD [1+ECX]
   174 00000160 89 54 8E 14                     	MOV	DWORD [20+ESI+ECX*4],EDX
   175 00000164 49                              	DEC	ECX
   176 00000165 89 42 18                        	MOV	DWORD [24+EDX],EAX
   177 00000168 39 D9                           	CMP	ECX,EBX
   178 0000016A 7D ED                           	JGE	L51
   179 0000016C                                 L58:
   180 0000016C 89 7C 9E 10                     	MOV	DWORD [16+ESI+EBX*4],EDI
   181 00000170 FF 46 0C                        	INC	DWORD [12+ESI]
   182 00000173 E9 FFFFFF72                     	JMP	L46
   183 00000178                                 	GLOBAL	_sheet_refresh
   184 00000178                                 _sheet_refresh:
   185 00000178 55                              	PUSH	EBP
   186 00000179 89 E5                           	MOV	EBP,ESP
   187 0000017B 57                              	PUSH	EDI
   188 0000017C 56                              	PUSH	ESI
   189 0000017D 53                              	PUSH	EBX
   190 0000017E 8B 5D 08                        	MOV	EBX,DWORD [8+EBP]
   191 00000181 8B 7D 0C                        	MOV	EDI,DWORD [12+EBP]
   192 00000184 8B 75 10                        	MOV	ESI,DWORD [16+EBP]
   193 00000187 8B 4D 14                        	MOV	ECX,DWORD [20+EBP]
   194 0000018A 8B 45 18                        	MOV	EAX,DWORD [24+EBP]
   195 0000018D 83 7B 18 00                     	CMP	DWORD [24+EBX],0
   196 00000191 78 26                           	JS	L59
   197 00000193 8B 53 10                        	MOV	EDX,DWORD [16+EBX]
   198 00000196 03 4B 0C                        	ADD	ECX,DWORD [12+EBX]
   199 00000199 8D 04 10                        	LEA	EAX,DWORD [EAX+EDX*1]
   200 0000019C 89 4D 14                        	MOV	DWORD [20+EBP],ECX
   201 0000019F 89 45 18                        	MOV	DWORD [24+EBP],EAX
   202 000001A2 8D 04 16                        	LEA	EAX,DWORD [ESI+EDX*1]
   203 000001A5 89 45 10                        	MOV	DWORD [16+EBP],EAX
   204 000001A8 01 FA                           	ADD	EDX,EDI
   205 000001AA 8B 43 20                        	MOV	EAX,DWORD [32+EBX]
   206 000001AD 89 55 0C                        	MOV	DWORD [12+EBP],EDX
   207 000001B0 89 45 08                        	MOV	DWORD [8+EBP],EAX
   208 000001B3 5B                              	POP	EBX
   209 000001B4 5E                              	POP	ESI
   210 000001B5 5F                              	POP	EDI
   211 000001B6 5D                              	POP	EBP
   212 000001B7 EB 05                           	JMP	_sheet_refreshsub
   213 000001B9                                 L59:
   214 000001B9 5B                              	POP	EBX
   215 000001BA 5E                              	POP	ESI
   216 000001BB 5F                              	POP	EDI
   217 000001BC 5D                              	POP	EBP
   218 000001BD C3                              	RET
   219 000001BE                                 	GLOBAL	_sheet_refreshsub
   220 000001BE                                 _sheet_refreshsub:
   221 000001BE 55                              	PUSH	EBP
   222 000001BF 89 E5                           	MOV	EBP,ESP
   223 000001C1 57                              	PUSH	EDI
   224 000001C2 56                              	PUSH	ESI
   225 000001C3 53                              	PUSH	EBX
   226 000001C4 83 EC 1C                        	SUB	ESP,28
   227 000001C7 8B 45 08                        	MOV	EAX,DWORD [8+EBP]
   228 000001CA 83 7D 0C 00                     	CMP	DWORD [12+EBP],0
   229 000001CE 8B 00                           	MOV	EAX,DWORD [EAX]
   230 000001D0 89 45 D8                        	MOV	DWORD [-40+EBP],EAX
   231 000001D3 0F 88 00000118                  	JS	L93
   232 000001D9                                 L62:
   233 000001D9 83 7D 10 00                     	CMP	DWORD [16+EBP],0
   234 000001DD 0F 88 00000102                  	JS	L94
   235 000001E3                                 L63:
   236 000001E3 8B 55 08                        	MOV	EDX,DWORD [8+EBP]
   237 000001E6 8B 42 04                        	MOV	EAX,DWORD [4+EDX]
   238 000001E9 39 45 14                        	CMP	DWORD [20+EBP],EAX
   239 000001EC 7E 03                           	JLE	L64
   240 000001EE 89 45 14                        	MOV	DWORD [20+EBP],EAX
   241 000001F1                                 L64:
   242 000001F1 8B 4D 08                        	MOV	ECX,DWORD [8+EBP]
   243 000001F4 8B 41 08                        	MOV	EAX,DWORD [8+ECX]
   244 000001F7 39 45 18                        	CMP	DWORD [24+EBP],EAX
   245 000001FA 7E 03                           	JLE	L65
   246 000001FC 89 45 18                        	MOV	DWORD [24+EBP],EAX
   247 000001FF                                 L65:
   248 000001FF 8B 55 08                        	MOV	EDX,DWORD [8+EBP]
   249 00000202 31 C0                           	XOR	EAX,EAX
   250 00000204 C7 45 F0 00000000               	MOV	DWORD [-16+EBP],0
   251 0000020B 3B 42 0C                        	CMP	EAX,DWORD [12+EDX]
   252 0000020E 0F 8F 000000C2                  	JG	L88
   253 00000214                                 L86:
   254 00000214 8B 4D F0                        	MOV	ECX,DWORD [-16+EBP]
   255 00000217 8B 45 08                        	MOV	EAX,DWORD [8+EBP]
   256 0000021A 8B 74 88 10                     	MOV	ESI,DWORD [16+EAX+ECX*4]
   257 0000021E 8B 4D 18                        	MOV	ECX,DWORD [24+EBP]
   258 00000221 8B 16                           	MOV	EDX,DWORD [ESI]
   259 00000223 8B 46 10                        	MOV	EAX,DWORD [16+ESI]
   260 00000226 89 55 E0                        	MOV	DWORD [-32+EBP],EDX
   261 00000229 29 C1                           	SUB	ECX,EAX
   262 0000022B 8B 55 10                        	MOV	EDX,DWORD [16+EBP]
   263 0000022E 89 4D E4                        	MOV	DWORD [-28+EBP],ECX
   264 00000231 29 C2                           	SUB	EDX,EAX
   265 00000233 89 D0                           	MOV	EAX,EDX
   266 00000235 0F 88 000000A3                  	JS	L95
   267 0000023B                                 L71:
   268 0000023B 8B 56 08                        	MOV	EDX,DWORD [8+ESI]
   269 0000023E 39 55 E4                        	CMP	DWORD [-28+EBP],EDX
   270 00000241 7E 03                           	JLE	L73
   271 00000243 89 55 E4                        	MOV	DWORD [-28+EBP],EDX
   272 00000246                                 L73:
   273 00000246 89 C7                           	MOV	EDI,EAX
   274 00000248 3B 45 E4                        	CMP	EAX,DWORD [-28+EBP]
   275 0000024B 7D 77                           	JGE	L90
   276 0000024D                                 L85:
   277 0000024D 8B 4E 10                        	MOV	ECX,DWORD [16+ESI]
   278 00000250 01 F9                           	ADD	ECX,EDI
   279 00000252 89 4D E8                        	MOV	DWORD [-24+EBP],ECX
   280 00000255 8B 4E 04                        	MOV	ECX,DWORD [4+ESI]
   281 00000258 C7 45 EC 00000000               	MOV	DWORD [-20+EBP],0
   282 0000025F 39 4D EC                        	CMP	DWORD [-20+EBP],ECX
   283 00000262 7D 5A                           	JGE	L92
   284 00000264                                 L84:
   285 00000264 8B 5D EC                        	MOV	EBX,DWORD [-20+EBP]
   286 00000267 03 5E 0C                        	ADD	EBX,DWORD [12+ESI]
   287 0000026A 39 5D 0C                        	CMP	DWORD [12+EBP],EBX
   288 0000026D 7F 44                           	JG	L80
   289 0000026F 3B 5D 14                        	CMP	EBX,DWORD [20+EBP]
   290 00000272 7D 3F                           	JGE	L80
   291 00000274 8B 45 E8                        	MOV	EAX,DWORD [-24+EBP]
   292 00000277 39 45 10                        	CMP	DWORD [16+EBP],EAX
   293 0000027A 7F 37                           	JG	L80
   294 0000027C 8B 55 18                        	MOV	EDX,DWORD [24+EBP]
   295 0000027F 39 D0                           	CMP	EAX,EDX
   296 00000281 7D 30                           	JGE	L80
   297 00000283 89 F8                           	MOV	EAX,EDI
   298 00000285 8B 55 E0                        	MOV	EDX,DWORD [-32+EBP]
   299 00000288 0F AF C1                        	IMUL	EAX,ECX
   300 0000028B 03 45 EC                        	ADD	EAX,DWORD [-20+EBP]
   301 0000028E 8A 04 10                        	MOV	AL,BYTE [EAX+EDX*1]
   302 00000291 0F B6 D0                        	MOVZX	EDX,AL
   303 00000294 88 45 DF                        	MOV	BYTE [-33+EBP],AL
   304 00000297 8D 04 0B                        	LEA	EAX,DWORD [EBX+ECX*1]
   305 0000029A 39 C2                           	CMP	EDX,EAX
   306 0000029C 74 15                           	JE	L80
   307 0000029E 8B 4D 08                        	MOV	ECX,DWORD [8+EBP]
   308 000002A1 8B 45 E8                        	MOV	EAX,DWORD [-24+EBP]
   309 000002A4 8A 55 DF                        	MOV	DL,BYTE [-33+EBP]
   310 000002A7 0F AF 41 04                     	IMUL	EAX,DWORD [4+ECX]
   311 000002AB 8B 4D D8                        	MOV	ECX,DWORD [-40+EBP]
   312 000002AE 01 D8                           	ADD	EAX,EBX
   313 000002B0 88 14 08                        	MOV	BYTE [EAX+ECX*1],DL
   314 000002B3                                 L80:
   315 000002B3 8B 4E 04                        	MOV	ECX,DWORD [4+ESI]
   316 000002B6 FF 45 EC                        	INC	DWORD [-20+EBP]
   317 000002B9 39 4D EC                        	CMP	DWORD [-20+EBP],ECX
   318 000002BC 7C A6                           	JL	L84
   319 000002BE                                 L92:
   320 000002BE 47                              	INC	EDI
   321 000002BF 3B 7D E4                        	CMP	EDI,DWORD [-28+EBP]
   322 000002C2 7C 89                           	JL	L85
   323 000002C4                                 L90:
   324 000002C4 8B 55 08                        	MOV	EDX,DWORD [8+EBP]
   325 000002C7 FF 45 F0                        	INC	DWORD [-16+EBP]
   326 000002CA 8B 45 F0                        	MOV	EAX,DWORD [-16+EBP]
   327 000002CD 3B 42 0C                        	CMP	EAX,DWORD [12+EDX]
   328 000002D0 0F 8E FFFFFF3E                  	JLE	L86
   329 000002D6                                 L88:
   330 000002D6 83 C4 1C                        	ADD	ESP,28
   331 000002D9 5B                              	POP	EBX
   332 000002DA 5E                              	POP	ESI
   333 000002DB 5F                              	POP	EDI
   334 000002DC 5D                              	POP	EBP
   335 000002DD C3                              	RET
   336 000002DE                                 L95:
   337 000002DE 31 C0                           	XOR	EAX,EAX
   338 000002E0 E9 FFFFFF56                     	JMP	L71
   339 000002E5                                 L94:
   340 000002E5 C7 45 10 00000000               	MOV	DWORD [16+EBP],0
   341 000002EC E9 FFFFFEF2                     	JMP	L63
   342 000002F1                                 L93:
   343 000002F1 C7 45 0C 00000000               	MOV	DWORD [12+EBP],0
   344 000002F8 E9 FFFFFEDC                     	JMP	L62
   345 000002FD                                 	GLOBAL	_sheet_slide
   346 000002FD                                 _sheet_slide:
   347 000002FD 55                              	PUSH	EBP
   348 000002FE 89 E5                           	MOV	EBP,ESP
   349 00000300 57                              	PUSH	EDI
   350 00000301 56                              	PUSH	ESI
   351 00000302 53                              	PUSH	EBX
   352 00000303 8B 7D 0C                        	MOV	EDI,DWORD [12+EBP]
   353 00000306 8B 5D 08                        	MOV	EBX,DWORD [8+EBP]
   354 00000309 8B 75 10                        	MOV	ESI,DWORD [16+EBP]
   355 0000030C 8B 4B 0C                        	MOV	ECX,DWORD [12+EBX]
   356 0000030F 8B 53 10                        	MOV	EDX,DWORD [16+EBX]
   357 00000312 89 7B 0C                        	MOV	DWORD [12+EBX],EDI
   358 00000315 89 73 10                        	MOV	DWORD [16+EBX],ESI
   359 00000318 83 7B 18 00                     	CMP	DWORD [24+EBX],0
   360 0000031C 78 2F                           	JS	L96
   361 0000031E 89 D0                           	MOV	EAX,EDX
   362 00000320 03 43 08                        	ADD	EAX,DWORD [8+EBX]
   363 00000323 50                              	PUSH	EAX
   364 00000324 89 C8                           	MOV	EAX,ECX
   365 00000326 03 43 04                        	ADD	EAX,DWORD [4+EBX]
   366 00000329 50                              	PUSH	EAX
   367 0000032A 52                              	PUSH	EDX
   368 0000032B 51                              	PUSH	ECX
   369 0000032C FF 73 20                        	PUSH	DWORD [32+EBX]
   370 0000032F E8 FFFFFE8A                     	CALL	_sheet_refreshsub
   371 00000334 89 F0                           	MOV	EAX,ESI
   372 00000336 03 43 08                        	ADD	EAX,DWORD [8+EBX]
   373 00000339 50                              	PUSH	EAX
   374 0000033A 89 F8                           	MOV	EAX,EDI
   375 0000033C 03 43 04                        	ADD	EAX,DWORD [4+EBX]
   376 0000033F 50                              	PUSH	EAX
   377 00000340 56                              	PUSH	ESI
   378 00000341 57                              	PUSH	EDI
   379 00000342 FF 73 20                        	PUSH	DWORD [32+EBX]
   380 00000345 E8 FFFFFE74                     	CALL	_sheet_refreshsub
   381 0000034A 83 C4 28                        	ADD	ESP,40
   382 0000034D                                 L96:
   383 0000034D 8D 65 F4                        	LEA	ESP,DWORD [-12+EBP]
   384 00000350 5B                              	POP	EBX
   385 00000351 5E                              	POP	ESI
   386 00000352 5F                              	POP	EDI
   387 00000353 5D                              	POP	EBP
   388 00000354 C3                              	RET
   389 00000355                                 	GLOBAL	_sheet_free
   390 00000355                                 _sheet_free:
   391 00000355 55                              	PUSH	EBP
   392 00000356 89 E5                           	MOV	EBP,ESP
   393 00000358 53                              	PUSH	EBX
   394 00000359 8B 5D 08                        	MOV	EBX,DWORD [8+EBP]
   395 0000035C 83 7B 18 00                     	CMP	DWORD [24+EBX],0
   396 00000360 78 0A                           	JS	L99
   397 00000362 6A FF                           	PUSH	-1
   398 00000364 53                              	PUSH	EBX
   399 00000365 E8 FFFFFD3B                     	CALL	_sheet_updown
   400 0000036A 58                              	POP	EAX
   401 0000036B 5A                              	POP	EDX
   402 0000036C                                 L99:
   403 0000036C C7 43 1C 00000000               	MOV	DWORD [28+EBX],0
   404 00000373 8B 5D FC                        	MOV	EBX,DWORD [-4+EBP]
   405 00000376 C9                              	LEAVE
   406 00000377 C3                              	RET
